target datalayout = "e-m:e-p270:32:32-p271:32:32-p272:64:64-i64:64-i128:128-f80:128-n8:16:32:64-S128"
target triple = "x86_64-pc-linux-gnu"

%struct._GC_arrays = type { i64, i64, i64, ptr, i64, i64, i64, i64, i64, i64, i64, i64, i64, i64, ptr, ptr, ptr, ptr, ptr, ptr, ptr, ptr, i32, i32, i32, i64, i64, i64, i64, i64, ptr, ptr, ptr, i64, i64, i32, i64, i64, ptr, i64, %struct.dl_hashtbl_s, %struct.dl_hashtbl_s, %struct.fnlz_roots_s, i32, ptr, i64, i64, i32, i32, i64, i64, i64, ptr, [64 x ptr], [8 x i8], [64 x ptr], [129 x ptr], [129 x ptr], [129 x ptr], [129 x ptr], [2049 x i64], [129 x ptr], [4096 x i8], [4096 x i64], [4096 x i64], ptr, [2048 x %struct.roots], [512 x %struct.exclusion], [2048 x ptr] }
%struct.dl_hashtbl_s = type { ptr, i64, i32 }
%struct.fnlz_roots_s = type { ptr, ptr }
%struct.roots = type { ptr, ptr, ptr, i32 }
%struct.exclusion = type { ptr, ptr }

@GC_arrays = global %struct._GC_arrays zeroinitializer, align 8
@GC_manual_vdb = internal global i32 0, align 4

; Function Attrs: nounwind uwtable
define internal void @GC_dirty_inner(ptr noundef %0) #0 {
  %2 = alloca ptr, align 8
  %3 = alloca i64, align 8
  %4 = alloca i64, align 8
  %5 = alloca i64, align 8
  store ptr %0, ptr %2, align 8
  %6 = load ptr, ptr %2, align 8
  %7 = ptrtoint ptr %6 to i64
  %8 = lshr i64 %7, 12
  %9 = and i64 %8, 262143
  store i64 %9, ptr %3, align 8
  %10 = load i64, ptr %3, align 8
  %11 = lshr i64 %10, 6
  %12 = getelementptr inbounds %struct._GC_arrays, ptr @GC_arrays, i32 0, i32 64
  %13 = getelementptr inbounds [4096 x i64], ptr %12, i64 0, i64 %11
  %14 = load i64, ptr %3, align 8
  %15 = and i64 %14, 63
  %16 = shl i64 1, %15
  store i64 %16, ptr %4, align 8
  %17 = load i64, ptr %4, align 8
  %18 = atomicrmw volatile or ptr %13, i64 %17 monotonic, align 8
  %19 = or i64 %18, %17
  store i64 %19, ptr %5, align 8
  ret void
}

; Function Attrs: nounwind uwtable
define void @GC_end_stubborn_change(ptr noundef nonnull %0) #0 {
  %2 = alloca ptr, align 8
  store ptr %0, ptr %2, align 8
  %3 = load i32, ptr @GC_manual_vdb, align 4
  %4 = icmp ne i32 %3, 0
  br i1 %4, label %5, label %7

5:                                                ; preds = %1
  %6 = load ptr, ptr %2, align 8
  call void @GC_dirty_inner(ptr noundef %6)
  br label %8

7:                                                ; preds = %1
  br label %8

8:                                                ; preds = %7, %5
  ret void
}