; Function Attrs: mustprogress nofree norecurse nounwind willreturn memory(readwrite, argmem: none) uwtable
define void @GC_end_stubborn_change(ptr noundef nonnull %0) local_unnamed_addr #10 {
  %.b = load i1, ptr @GC_manual_vdb, align 4
  br i1 %.b, label %2, label %11

2:                                                ; preds = %1
  %3 = ptrtoint ptr %0 to i64
  %4 = lshr i64 %3, 12
  %5 = lshr i64 %3, 18
  %6 = and i64 %5, 4095
  %7 = getelementptr inbounds nuw [4096 x i64], ptr getelementptr inbounds nuw (i8, ptr @GC_arrays, i64 59896), i64 0, i64 %6
  %8 = and i64 %4, 63
  %9 = shl nuw i64 1, %8
  %10 = atomicrmw volatile or ptr %7, i64 %9 monotonic, align 8
  br label %11

11:                                               ; preds = %1, %2
  ret void
}